; Function Attrs: mustprogress nounwind uwtable
define dso_local noundef zeroext i1 @_ZN4llvm10AsmPrinter13needsSEHMovesEv(ptr nocapture noundef nonnull readonly align 8 dereferenceable(785) %0) local_unnamed_addr #0 align 2 {
  %2 = getelementptr inbounds nuw i8, ptr %0, i64 64
  %3 = load ptr, ptr %2, align 8
  %4 = getelementptr inbounds nuw i8, ptr %3, i64 412
  %5 = load i32, ptr %4, align 4
  %6 = icmp eq i32 %5, 4
  br i1 %6, label %_ZNK4llvm9MCAsmInfo14usesWindowsCFIEv.exit, label %_ZNK4llvm8Function21needsUnwindTableEntryEv.exit

_ZNK4llvm9MCAsmInfo14usesWindowsCFIEv.exit:       ; preds = %1
  %7 = getelementptr inbounds nuw i8, ptr %3, i64 420
  %8 = load i32, ptr %7, align 4
  switch i32 %8, label %9 [
    i32 6, label %_ZNK4llvm8Function21needsUnwindTableEntryEv.exit
    i32 0, label %_ZNK4llvm8Function21needsUnwindTableEntryEv.exit
  ]

9:                                                ; preds = %_ZNK4llvm9MCAsmInfo14usesWindowsCFIEv.exit
  %10 = getelementptr inbounds nuw i8, ptr %0, i64 88
  %11 = load ptr, ptr %10, align 8
  %12 = load ptr, ptr %11, align 8
  %13 = getelementptr inbounds nuw i8, ptr %12, i64 120
  %14 = tail call noundef i32 @_ZNK4llvm13AttributeList14getUWTableKindEv(ptr noundef nonnull align 8 dereferenceable(8) %13) #33
  %.not.i1 = icmp eq i32 %14, 0
  br i1 %.not.i1, label %15, label %_ZNK4llvm8Function21needsUnwindTableEntryEv.exit

15:                                               ; preds = %9
  %16 = tail call noundef zeroext i1 @_ZNK4llvm8Function14hasFnAttributeENS_9Attribute8AttrKindE(ptr noundef nonnull align 8 dereferenceable(136) %12, i32 noundef 39) #33
  br i1 %16, label %17, label %_ZNK4llvm8Function21needsUnwindTableEntryEv.exit

17:                                               ; preds = %15
  %18 = getelementptr inbounds nuw i8, ptr %12, i64 2
  %19 = load i16, ptr %18, align 2
  %20 = and i16 %19, 8
  %21 = icmp ne i16 %20, 0
  br label %_ZNK4llvm8Function21needsUnwindTableEntryEv.exit

_ZNK4llvm8Function21needsUnwindTableEntryEv.exit: ; preds = %_ZNK4llvm9MCAsmInfo14usesWindowsCFIEv.exit, %_ZNK4llvm9MCAsmInfo14usesWindowsCFIEv.exit, %1, %17, %15, %9
  %22 = phi i1 [ false, %_ZNK4llvm9MCAsmInfo14usesWindowsCFIEv.exit ], [ true, %15 ], [ true, %9 ], [ %21, %17 ], [ false, %1 ], [ false, %_ZNK4llvm9MCAsmInfo14usesWindowsCFIEv.exit ]
  ret i1 %22
}